; Function Attrs: mustprogress uwtable
define noundef double @_ZNK8QuantLib9CapHelper10modelValueEv(ptr noundef nonnull align 8 dereferenceable(169) %this) unnamed_addr #8 align 2 {
entry:
  %vtable = load ptr, ptr %this, align 8, !tbaa !33
  %vfn = getelementptr inbounds i8, ptr %vtable, i64 24
  %0 = load ptr, ptr %vfn, align 8
  tail call void %0(ptr noundef nonnull align 8 dereferenceable(12) %this)
  %cap_ = getelementptr inbounds nuw i8, ptr %this, i64 88
  %1 = load ptr, ptr %cap_, align 8, !tbaa !106
  %cmp.not.i = icmp eq ptr %1, null
  br i1 %cmp.not.i, label %cond.false.i, label %_ZNK5boost10shared_ptrIN8QuantLib3CapEEptEv.exit, !prof !107

cond.false.i:                                     ; preds = %entry
  tail call void @_ZN5boost16assertion_failedEPKcS1_S1_l(ptr noundef nonnull @.str.22, ptr noundef nonnull @__PRETTY_FUNCTION__._ZNK5boost10shared_ptrIN8QuantLib3CapEEptEv, ptr noundef nonnull @.str.23, i64 noundef 784)
  %.pre.i = load ptr, ptr %cap_, align 8, !tbaa !106
  br label %_ZNK5boost10shared_ptrIN8QuantLib3CapEEptEv.exit

_ZNK5boost10shared_ptrIN8QuantLib3CapEEptEv.exit: ; preds = %entry, %cond.false.i
  %2 = phi ptr [ %1, %entry ], [ %.pre.i, %cond.false.i ]
  %engine_ = getelementptr inbounds nuw i8, ptr %this, i64 48
  tail call void @_ZN8QuantLib10Instrument16setPricingEngineERKN5boost10shared_ptrINS_13PricingEngineEEE(ptr noundef nonnull align 8 dereferenceable(104) %2, ptr noundef nonnull align 8 dereferenceable(16) %engine_)
  %3 = load ptr, ptr %cap_, align 8, !tbaa !106
  %cmp.not.i1 = icmp eq ptr %3, null
  br i1 %cmp.not.i1, label %cond.false.i2, label %_ZNK5boost10shared_ptrIN8QuantLib3CapEEptEv.exit4, !prof !107

cond.false.i2:                                    ; preds = %_ZNK5boost10shared_ptrIN8QuantLib3CapEEptEv.exit
  tail call void @_ZN5boost16assertion_failedEPKcS1_S1_l(ptr noundef nonnull @.str.22, ptr noundef nonnull @__PRETTY_FUNCTION__._ZNK5boost10shared_ptrIN8QuantLib3CapEEptEv, ptr noundef nonnull @.str.23, i64 noundef 784)
  %.pre.i3 = load ptr, ptr %cap_, align 8, !tbaa !106
  br label %_ZNK5boost10shared_ptrIN8QuantLib3CapEEptEv.exit4

_ZNK5boost10shared_ptrIN8QuantLib3CapEEptEv.exit4: ; preds = %_ZNK5boost10shared_ptrIN8QuantLib3CapEEptEv.exit, %cond.false.i2
  %4 = phi ptr [ %3, %_ZNK5boost10shared_ptrIN8QuantLib3CapEEptEv.exit ], [ %.pre.i3, %cond.false.i2 ]
  %call4 = tail call noundef double @_ZNK8QuantLib10Instrument3NPVEv(ptr noundef nonnull align 8 dereferenceable(104) %4)
  ret double %call4
}